target datalayout = "e-m:e-p270:32:32-p271:32:32-p272:64:64-i64:64-i128:128-f80:128-n8:16:32:64-S128"
target triple = "x86_64-pc-linux-gnu"

%struct.slurm_conf_t = type { i64, ptr, i16, ptr, ptr, ptr, ptr, ptr, i16, ptr, ptr, ptr, ptr, ptr, ptr, ptr, i16, ptr, ptr, ptr, ptr, i16, ptr, ptr, ptr, i64, ptr, ptr, ptr, ptr, i16, ptr, ptr, i16, i32, ptr, i32, ptr, i32, i32, ptr, ptr, i64, i64, ptr, i16, i16, ptr, i32, i32, ptr, i32, ptr, i32, i16, i16, i16, ptr, i16, i16, ptr, ptr, i32, i16, i16, ptr, i32, i16, ptr, ptr, ptr, ptr, i16, ptr, ptr, ptr, ptr, i32, ptr, ptr, ptr, ptr, i16, i16, ptr, i32, i32, i32, i16, i16, ptr, ptr, i16, ptr, ptr, i32, i32, i32, i32, i32, i64, i32, i32, i16, ptr, ptr, i32, ptr, ptr, ptr, i16, i32, ptr, ptr, i16, ptr, ptr, i32, i16, ptr, ptr, ptr, ptr, i32, i32, i16, i16, i32, ptr, i16, ptr, i32, i32, i32, i32, i32, i32, ptr, i16, ptr, ptr, i32, i16, ptr, i32, i16, i16, ptr, ptr, ptr, i16, ptr, ptr, ptr, ptr, i16, i16, ptr, i16, ptr, i16, ptr, i16, ptr, i16, ptr, ptr, ptr, ptr, i16, ptr, ptr, ptr, i32, ptr, i32, ptr, ptr, i16, ptr, ptr, i32, i16, ptr, ptr, i16, i16, ptr, i16, ptr, ptr, ptr, i32, ptr, i16, i16, ptr, ptr, ptr, ptr, ptr, ptr, ptr, ptr, i16, i32, i16, ptr, ptr, ptr, ptr, i32, ptr, ptr, ptr, i16, ptr, ptr, ptr, i16, ptr, i16, ptr, i16, i16, ptr }
%union.pthread_mutex_t = type { %struct.__pthread_mutex_s }
%struct.__pthread_mutex_s = type { i32, i32, i32, i32, i32, i16, i16, %struct.__pthread_internal_list }
%struct.__pthread_internal_list = type { ptr, ptr }
%struct.slurmdbd_conn_t = type { ptr, ptr, %union.pthread_mutex_t, ptr, ptr }
%struct.persist_conn_t = type { ptr, i32, i32, i8, ptr, ptr, ptr, i64, i16, i32, i16, i8, i32, i32, ptr, i16, ptr, i64, i32, ptr, %struct.slurm_trigger_callbacks_t, i16 }
%struct.slurm_trigger_callbacks_t = type { ptr, ptr, ptr, ptr, ptr }
%struct.persist_msg_t = type { ptr, ptr, i16 }
%struct.slurmdbd_conf_t = type { ptr, ptr, i16, ptr, ptr, ptr, i16, i16, ptr, i32, ptr, i32, ptr, i16, ptr, i32, i32, i32, i32, i32, i32, i32, ptr, i16, i16, i16 }
%struct.dbd_list_msg_t = type { ptr, i32 }
%struct.dbd_cond_msg_t = type { ptr }
%struct.slurmdb_job_cond_t = type { ptr, ptr, ptr, ptr, i32, i32, i32, i32, i32, ptr, ptr, ptr, i32, i32, ptr, ptr, ptr, ptr, ptr, ptr, ptr, i32, i32, i64, i64, ptr, ptr, ptr }

@slurm_conf = external global %struct.slurm_conf_t, align 8
@slurmdbd_conf = external global ptr, align 8
@.str.70 = private unnamed_addr constant [37 x i8] c"DBD_GET_JOBS_COND: called in CONN %d\00", align 1
@.str.71 = private unnamed_addr constant [40 x i8] c"Rejecting query of runaways from uid %u\00", align 1
@.str.72 = private unnamed_addr constant [58 x i8] c"You must have an AdminLevel>=Operator to fix runaway jobs\00", align 1
@.str.73 = private unnamed_addr constant [48 x i8] c"Rejecting query > MaxQueryTimeRange from uid %u\00", align 1

; Function Attrs: nounwind uwtable
define internal zeroext i1 @_validate_operator(ptr noundef %0) #0 {
  %2 = alloca i1, align 1
  %3 = alloca ptr, align 8
  %4 = alloca i32, align 4
  %5 = alloca i32, align 4
  store ptr %0, ptr %3, align 8
  call void @llvm.lifetime.start.p0(i64 4, ptr %4) #8
  %6 = load ptr, ptr %3, align 8
  %7 = getelementptr inbounds nuw %struct.slurmdbd_conn_t, ptr %6, i32 0, i32 0
  %8 = load ptr, ptr %7, align 8
  %9 = getelementptr inbounds nuw %struct.persist_conn_t, ptr %8, i32 0, i32 1
  %10 = load i32, ptr %9, align 8
  store i32 %10, ptr %4, align 4
  %11 = load i32, ptr %4, align 4
  %12 = icmp eq i32 %11, 0
  br i1 %12, label %22, label %13

13:                                               ; preds = %1
  %14 = load i32, ptr %4, align 4
  %15 = load i32, ptr getelementptr inbounds nuw (%struct.slurm_conf_t, ptr @slurm_conf, i32 0, i32 173), align 8
  %16 = icmp eq i32 %14, %15
  br i1 %16, label %22, label %17

17:                                               ; preds = %13
  %18 = load ptr, ptr %3, align 8
  %19 = load i32, ptr %4, align 4
  %20 = call i32 @assoc_mgr_get_admin_level(ptr noundef %18, i32 noundef %19)
  %21 = icmp uge i32 %20, 2
  br i1 %21, label %22, label %23

22:                                               ; preds = %17, %13, %1
  store i1 true, ptr %2, align 1
  store i32 1, ptr %5, align 4
  br label %24

23:                                               ; preds = %17
  store i1 false, ptr %2, align 1
  store i32 1, ptr %5, align 4
  br label %24

24:                                               ; preds = %23, %22
  call void @llvm.lifetime.end.p0(i64 4, ptr %4) #8
  %25 = load i1, ptr %2, align 1
  ret i1 %25
}

; Function Attrs: nounwind uwtable
define internal i32 @_get_jobs_cond(ptr noundef %0, ptr noundef %1, ptr noundef %2) #0 {
  %4 = alloca i32, align 4
  %5 = alloca ptr, align 8
  %6 = alloca ptr, align 8
  %7 = alloca ptr, align 8
  %8 = alloca ptr, align 8
  %9 = alloca %struct.dbd_list_msg_t, align 8
  %10 = alloca ptr, align 8
  %11 = alloca i32, align 4
  %12 = alloca i32, align 4
  %13 = alloca i64, align 8
  %14 = alloca i64, align 8
  store ptr %0, ptr %5, align 8
  store ptr %1, ptr %6, align 8
  store ptr %2, ptr %7, align 8
  call void @llvm.lifetime.start.p0(i64 8, ptr %8) #8
  %15 = load ptr, ptr %6, align 8
  %16 = getelementptr inbounds nuw %struct.persist_msg_t, ptr %15, i32 0, i32 1
  %17 = load ptr, ptr %16, align 8
  store ptr %17, ptr %8, align 8
  call void @llvm.lifetime.start.p0(i64 16, ptr %9) #8
  call void @llvm.memset.p0.i64(ptr align 8 %9, i8 0, i64 16, i1 false)
  call void @llvm.lifetime.start.p0(i64 8, ptr %10) #8
  %18 = load ptr, ptr %8, align 8
  %19 = getelementptr inbounds nuw %struct.dbd_cond_msg_t, ptr %18, i32 0, i32 0
  %20 = load ptr, ptr %19, align 8
  store ptr %20, ptr %10, align 8
  call void @llvm.lifetime.start.p0(i64 4, ptr %11) #8
  store i32 0, ptr %11, align 4
  br label %21

21:                                               ; preds = %3
  br label %22

22:                                               ; preds = %21
  %23 = call i32 @get_log_level()
  %24 = icmp sge i32 %23, 6
  br i1 %24, label %25, label %31

25:                                               ; preds = %22
  %26 = load ptr, ptr %5, align 8
  %27 = getelementptr inbounds nuw %struct.slurmdbd_conn_t, ptr %26, i32 0, i32 0
  %28 = load ptr, ptr %27, align 8
  %29 = getelementptr inbounds nuw %struct.persist_conn_t, ptr %28, i32 0, i32 9
  %30 = load i32, ptr %29, align 4
  call void (i32, ptr, ...) @log_var(i32 noundef 6, ptr noundef @.str.70, i32 noundef %30)
  br label %31

31:                                               ; preds = %25, %22
  br label %32

32:                                               ; preds = %31
  br label %33

33:                                               ; preds = %32
  br label %34

34:                                               ; preds = %33
  br label %35

35:                                               ; preds = %34
  %36 = load ptr, ptr %10, align 8
  %37 = getelementptr inbounds nuw %struct.slurmdb_job_cond_t, ptr %36, i32 0, i32 8
  %38 = load i32, ptr %37, align 8
  %39 = zext i32 %38 to i64
  %40 = and i64 %39, 8
  %41 = icmp ne i64 %40, 0
  br i1 %41, label %42, label %66

42:                                               ; preds = %35
  %43 = load ptr, ptr %5, align 8
  %44 = call zeroext i1 @_validate_operator(ptr noundef %43)
  br i1 %44, label %66, label %45

45:                                               ; preds = %42
  br label %46

46:                                               ; preds = %45
  br label %47

47:                                               ; preds = %46
  %48 = call i32 @get_log_level()
  %49 = icmp sge i32 %48, 5
  br i1 %49, label %50, label %56

50:                                               ; preds = %47
  %51 = load ptr, ptr %5, align 8
  %52 = getelementptr inbounds nuw %struct.slurmdbd_conn_t, ptr %51, i32 0, i32 0
  %53 = load ptr, ptr %52, align 8
  %54 = getelementptr inbounds nuw %struct.persist_conn_t, ptr %53, i32 0, i32 1
  %55 = load i32, ptr %54, align 8
  call void (i32, ptr, ...) @log_var(i32 noundef 5, ptr noundef @.str.71, i32 noundef %55)
  br label %56

56:                                               ; preds = %50, %47
  br label %57

57:                                               ; preds = %56
  br label %58

58:                                               ; preds = %57
  br label %59

59:                                               ; preds = %58
  br label %60

60:                                               ; preds = %59
  %61 = load ptr, ptr %5, align 8
  %62 = getelementptr inbounds nuw %struct.slurmdbd_conn_t, ptr %61, i32 0, i32 0
  %63 = load ptr, ptr %62, align 8
  %64 = call ptr @slurm_persist_make_rc_msg(ptr noundef %63, i32 noundef 2002, ptr noundef @.str.72, i16 noundef zeroext 1444)
  %65 = load ptr, ptr %7, align 8
  store ptr %64, ptr %65, align 8
  store i32 -1, ptr %4, align 4
  store i32 1, ptr %12, align 4
  br label %186

66:                                               ; preds = %42, %35
  %67 = load ptr, ptr %10, align 8
  %68 = getelementptr inbounds nuw %struct.slurmdb_job_cond_t, ptr %67, i32 0, i32 20
  %69 = load ptr, ptr %68, align 8
  %70 = icmp ne ptr %69, null
  br i1 %70, label %128, label %71

71:                                               ; preds = %66
  %72 = load ptr, ptr %5, align 8
  %73 = call zeroext i1 @_validate_operator(ptr noundef %72)
  br i1 %73, label %128, label %74

74:                                               ; preds = %71
  %75 = load ptr, ptr @slurmdbd_conf, align 8
  %76 = getelementptr inbounds nuw %struct.slurmdbd_conf_t, ptr %75, i32 0, i32 11
  %77 = load i32, ptr %76, align 8
  %78 = icmp ne i32 %77, -1
  br i1 %78, label %79, label %128

79:                                               ; preds = %74
  call void @llvm.lifetime.start.p0(i64 8, ptr %13) #8
  call void @llvm.lifetime.start.p0(i64 8, ptr %14) #8
  %80 = load ptr, ptr %10, align 8
  %81 = getelementptr inbounds nuw %struct.slurmdb_job_cond_t, ptr %80, i32 0, i32 24
  %82 = load i64, ptr %81, align 8
  store i64 %82, ptr %13, align 8
  %83 = load ptr, ptr %10, align 8
  %84 = getelementptr inbounds nuw %struct.slurmdb_job_cond_t, ptr %83, i32 0, i32 23
  %85 = load i64, ptr %84, align 8
  %86 = icmp ne i64 %85, 0
  br i1 %86, label %87, label %91

87:                                               ; preds = %79
  %88 = load ptr, ptr %10, align 8
  %89 = getelementptr inbounds nuw %struct.slurmdb_job_cond_t, ptr %88, i32 0, i32 23
  %90 = load i64, ptr %89, align 8
  store i64 %90, ptr %14, align 8
  br label %93

91:                                               ; preds = %79
  %92 = call i64 @time(ptr noundef null) #8
  store i64 %92, ptr %14, align 8
  br label %93

93:                                               ; preds = %91, %87
  %94 = load i64, ptr %14, align 8
  %95 = load i64, ptr %13, align 8
  %96 = sub nsw i64 %94, %95
  %97 = load ptr, ptr @slurmdbd_conf, align 8
  %98 = getelementptr inbounds nuw %struct.slurmdbd_conf_t, ptr %97, i32 0, i32 11
  %99 = load i32, ptr %98, align 8
  %100 = zext i32 %99 to i64
  %101 = icmp sgt i64 %96, %100
  br i1 %101, label %102, label %124

102:                                              ; preds = %93
  br label %103

103:                                              ; preds = %102
  br label %104

104:                                              ; preds = %103
  %105 = call i32 @get_log_level()
  %106 = icmp sge i32 %105, 3
  br i1 %106, label %107, label %113

107:                                              ; preds = %104
  %108 = load ptr, ptr %5, align 8
  %109 = getelementptr inbounds nuw %struct.slurmdbd_conn_t, ptr %108, i32 0, i32 0
  %110 = load ptr, ptr %109, align 8
  %111 = getelementptr inbounds nuw %struct.persist_conn_t, ptr %110, i32 0, i32 1
  %112 = load i32, ptr %111, align 8
  call void (i32, ptr, ...) @log_var(i32 noundef 3, ptr noundef @.str.73, i32 noundef %112)
  br label %113

113:                                              ; preds = %107, %104
  br label %114

114:                                              ; preds = %113
  br label %115

115:                                              ; preds = %114
  br label %116

116:                                              ; preds = %115
  br label %117

117:                                              ; preds = %116
  %118 = load ptr, ptr %5, align 8
  %119 = getelementptr inbounds nuw %struct.slurmdbd_conn_t, ptr %118, i32 0, i32 0
  %120 = load ptr, ptr %119, align 8
  %121 = call ptr @slurm_strerror(i32 noundef 7007)
  %122 = call ptr @slurm_persist_make_rc_msg(ptr noundef %120, i32 noundef 7007, ptr noundef %121, i16 noundef zeroext 1444)
  %123 = load ptr, ptr %7, align 8
  store ptr %122, ptr %123, align 8
  store i32 -1, ptr %4, align 4
  store i32 1, ptr %12, align 4
  br label %125

124:                                              ; preds = %93
  store i32 0, ptr %12, align 4
  br label %125

125:                                              ; preds = %124, %117
  call void @llvm.lifetime.end.p0(i64 8, ptr %14) #8
  call void @llvm.lifetime.end.p0(i64 8, ptr %13) #8
  %126 = load i32, ptr %12, align 4
  switch i32 %126, label %186 [
    i32 0, label %127
  ]

127:                                              ; preds = %125
  br label %128

128:                                              ; preds = %127, %74, %71, %66
  %129 = load ptr, ptr %5, align 8
  %130 = getelementptr inbounds nuw %struct.slurmdbd_conn_t, ptr %129, i32 0, i32 3
  %131 = load ptr, ptr %130, align 8
  %132 = load ptr, ptr %5, align 8
  %133 = getelementptr inbounds nuw %struct.slurmdbd_conn_t, ptr %132, i32 0, i32 0
  %134 = load ptr, ptr %133, align 8
  %135 = getelementptr inbounds nuw %struct.persist_conn_t, ptr %134, i32 0, i32 1
  %136 = load i32, ptr %135, align 8
  %137 = load ptr, ptr %10, align 8
  %138 = call ptr @jobacct_storage_g_get_jobs_cond(ptr noundef %131, i32 noundef %136, ptr noundef %137)
  %139 = getelementptr inbounds nuw %struct.dbd_list_msg_t, ptr %9, i32 0, i32 0
  store ptr %138, ptr %139, align 8
  %140 = call ptr @__errno_location() #10
  %141 = load i32, ptr %140, align 4
  %142 = icmp ne i32 %141, 0
  br i1 %142, label %162, label %143

143:                                              ; preds = %128
  %144 = getelementptr inbounds nuw %struct.dbd_list_msg_t, ptr %9, i32 0, i32 0
  %145 = load ptr, ptr %144, align 8
  %146 = icmp ne ptr %145, null
  br i1 %146, label %150, label %147

147:                                              ; preds = %143
  %148 = call ptr @list_create(ptr noundef null)
  %149 = getelementptr inbounds nuw %struct.dbd_list_msg_t, ptr %9, i32 0, i32 0
  store ptr %148, ptr %149, align 8
  br label %150

150:                                              ; preds = %147, %143
  %151 = call ptr @init_buf(i32 noundef 1024)
  %152 = load ptr, ptr %7, align 8
  store ptr %151, ptr %152, align 8
  %153 = load ptr, ptr %7, align 8
  %154 = load ptr, ptr %153, align 8
  call void @pack16(i16 noundef zeroext 1421, ptr noundef %154)
  %155 = load ptr, ptr %5, align 8
  %156 = getelementptr inbounds nuw %struct.slurmdbd_conn_t, ptr %155, i32 0, i32 0
  %157 = load ptr, ptr %156, align 8
  %158 = getelementptr inbounds nuw %struct.persist_conn_t, ptr %157, i32 0, i32 21
  %159 = load i16, ptr %158, align 8
  %160 = load ptr, ptr %7, align 8
  %161 = load ptr, ptr %160, align 8
  call void @slurmdbd_pack_list_msg(ptr noundef %9, i16 noundef zeroext %159, i32 noundef 1421, ptr noundef %161)
  br label %173

162:                                              ; preds = %128
  %163 = load ptr, ptr %5, align 8
  %164 = getelementptr inbounds nuw %struct.slurmdbd_conn_t, ptr %163, i32 0, i32 0
  %165 = load ptr, ptr %164, align 8
  %166 = call ptr @__errno_location() #10
  %167 = load i32, ptr %166, align 4
  %168 = call ptr @__errno_location() #10
  %169 = load i32, ptr %168, align 4
  %170 = call ptr @slurm_strerror(i32 noundef %169)
  %171 = call ptr @slurm_persist_make_rc_msg(ptr noundef %165, i32 noundef %167, ptr noundef %170, i16 noundef zeroext 1444)
  %172 = load ptr, ptr %7, align 8
  store ptr %171, ptr %172, align 8
  store i32 -1, ptr %11, align 4
  br label %173

173:                                              ; preds = %162, %150
  br label %174

174:                                              ; preds = %173
  %175 = getelementptr inbounds nuw %struct.dbd_list_msg_t, ptr %9, i32 0, i32 0
  %176 = load ptr, ptr %175, align 8
  %177 = icmp ne ptr %176, null
  br i1 %177, label %178, label %181

178:                                              ; preds = %174
  %179 = getelementptr inbounds nuw %struct.dbd_list_msg_t, ptr %9, i32 0, i32 0
  %180 = load ptr, ptr %179, align 8
  call void @list_destroy(ptr noundef %180)
  br label %181

181:                                              ; preds = %178, %174
  %182 = getelementptr inbounds nuw %struct.dbd_list_msg_t, ptr %9, i32 0, i32 0
  store ptr null, ptr %182, align 8
  br label %183

183:                                              ; preds = %181
  br label %184

184:                                              ; preds = %183
  %185 = load i32, ptr %11, align 4
  store i32 %185, ptr %4, align 4
  store i32 1, ptr %12, align 4
  br label %186

186:                                              ; preds = %184, %125, %60
  call void @llvm.lifetime.end.p0(i64 4, ptr %11) #8
  call void @llvm.lifetime.end.p0(i64 8, ptr %10) #8
  call void @llvm.lifetime.end.p0(i64 16, ptr %9) #8
  call void @llvm.lifetime.end.p0(i64 8, ptr %8) #8
  %187 = load i32, ptr %4, align 4
  ret i32 %187
}