; Function Attrs: nounwind uwtable
define internal fastcc range(i32 -1, 1) i32 @_get_jobs_cond(ptr noundef %0, ptr %.8.val.0.val, ptr noundef captures(none) initializes((0, 8)) %1) unnamed_addr #0 {
  %3 = alloca %struct.dbd_list_msg_t, align 8
  call void @llvm.lifetime.start.p0(i64 16, ptr nonnull %3) #10
  %4 = getelementptr inbounds nuw i8, ptr %3, i64 8
  store i64 0, ptr %4, align 8
  %5 = tail call i32 @get_log_level() #10
  %6 = icmp sgt i32 %5, 5
  br i1 %6, label %7, label %11

7:                                                ; preds = %2
  %8 = load ptr, ptr %0, align 8
  %9 = getelementptr inbounds nuw i8, ptr %8, i64 60
  %10 = load i32, ptr %9, align 4
  tail call void (i32, ptr, ...) @log_var(i32 noundef 6, ptr noundef nonnull @.str.70, i32 noundef %10) #10
  br label %11

11:                                               ; preds = %7, %2
  %12 = getelementptr inbounds nuw i8, ptr %.8.val.0.val, i64 48
  %13 = load i32, ptr %12, align 8
  %14 = and i32 %13, 8
  %.not = icmp eq i32 %14, 0
  br i1 %.not, label %_validate_operator.exit.thread, label %15

15:                                               ; preds = %11
  %16 = load ptr, ptr %0, align 8
  %17 = getelementptr inbounds nuw i8, ptr %16, i64 8
  %18 = load i32, ptr %17, align 8
  %19 = icmp eq i32 %18, 0
  %20 = load i32, ptr getelementptr inbounds nuw (i8, ptr @slurm_conf, i64 1152), align 8
  %21 = icmp eq i32 %18, %20
  %or.cond.i = select i1 %19, i1 true, i1 %21
  br i1 %or.cond.i, label %_validate_operator.exit.thread, label %_validate_operator.exit

_validate_operator.exit:                          ; preds = %15
  %22 = tail call i32 @assoc_mgr_get_admin_level(ptr noundef nonnull %0, i32 noundef %18) #10
  %23 = icmp ugt i32 %22, 1
  br i1 %23, label %_validate_operator.exit.thread, label %24

24:                                               ; preds = %_validate_operator.exit
  %25 = tail call i32 @get_log_level() #10
  %26 = icmp sgt i32 %25, 4
  br i1 %26, label %27, label %31

27:                                               ; preds = %24
  %28 = load ptr, ptr %0, align 8
  %29 = getelementptr inbounds nuw i8, ptr %28, i64 8
  %30 = load i32, ptr %29, align 8
  tail call void (i32, ptr, ...) @log_var(i32 noundef 5, ptr noundef nonnull @.str.71, i32 noundef %30) #10
  br label %31

31:                                               ; preds = %27, %24
  %32 = load ptr, ptr %0, align 8
  %33 = tail call ptr @slurm_persist_make_rc_msg(ptr noundef %32, i32 noundef 2002, ptr noundef nonnull @.str.72, i16 noundef zeroext 1444) #10
  store ptr %33, ptr %1, align 8
  br label %95

_validate_operator.exit.thread:                   ; preds = %15, %_validate_operator.exit, %11
  %34 = getelementptr inbounds nuw i8, ptr %.8.val.0.val, i64 136
  %35 = load ptr, ptr %34, align 8
  %.not35 = icmp eq ptr %35, null
  br i1 %.not35, label %36, label %.critedge

36:                                               ; preds = %_validate_operator.exit.thread
  %37 = load ptr, ptr %0, align 8
  %38 = getelementptr inbounds nuw i8, ptr %37, i64 8
  %39 = load i32, ptr %38, align 8
  %40 = icmp eq i32 %39, 0
  %41 = load i32, ptr getelementptr inbounds nuw (i8, ptr @slurm_conf, i64 1152), align 8
  %42 = icmp eq i32 %39, %41
  %or.cond.i42 = select i1 %40, i1 true, i1 %42
  br i1 %or.cond.i42, label %.critedge, label %_validate_operator.exit44

_validate_operator.exit44:                        ; preds = %36
  %43 = tail call i32 @assoc_mgr_get_admin_level(ptr noundef nonnull %0, i32 noundef %39) #10
  %44 = icmp ugt i32 %43, 1
  br i1 %44, label %.critedge, label %45

45:                                               ; preds = %_validate_operator.exit44
  %46 = load ptr, ptr @slurmdbd_conf, align 8
  %47 = getelementptr inbounds nuw i8, ptr %46, i64 80
  %48 = load i32, ptr %47, align 8
  %.not36 = icmp eq i32 %48, -1
  br i1 %.not36, label %.critedge, label %49

49:                                               ; preds = %45
  %50 = getelementptr inbounds nuw i8, ptr %.8.val.0.val, i64 160
  %51 = load i64, ptr %50, align 8
  %52 = getelementptr inbounds nuw i8, ptr %.8.val.0.val, i64 152
  %53 = load i64, ptr %52, align 8
  %.not37 = icmp eq i64 %53, 0
  br i1 %.not37, label %54, label %56

54:                                               ; preds = %49
  %55 = tail call i64 @time(ptr noundef null) #10
  %.pre = load ptr, ptr @slurmdbd_conf, align 8
  %.phi.trans.insert = getelementptr inbounds nuw i8, ptr %.pre, i64 80
  %.pre3 = load i32, ptr %.phi.trans.insert, align 8
  br label %56

56:                                               ; preds = %49, %54
  %57 = phi i32 [ %.pre3, %54 ], [ %48, %49 ]
  %.0 = phi i64 [ %55, %54 ], [ %53, %49 ]
  %58 = sub nsw i64 %.0, %51
  %59 = zext i32 %57 to i64
  %.not38 = icmp sgt i64 %58, %59
  br i1 %.not38, label %60, label %.critedge

60:                                               ; preds = %56
  %61 = tail call i32 @get_log_level() #10
  %62 = icmp sgt i32 %61, 2
  br i1 %62, label %63, label %67

63:                                               ; preds = %60
  %64 = load ptr, ptr %0, align 8
  %65 = getelementptr inbounds nuw i8, ptr %64, i64 8
  %66 = load i32, ptr %65, align 8
  tail call void (i32, ptr, ...) @log_var(i32 noundef 3, ptr noundef nonnull @.str.73, i32 noundef %66) #10
  br label %67

67:                                               ; preds = %63, %60
  %68 = load ptr, ptr %0, align 8
  %69 = tail call ptr @slurm_strerror(i32 noundef 7007) #10
  %70 = tail call ptr @slurm_persist_make_rc_msg(ptr noundef %68, i32 noundef 7007, ptr noundef %69, i16 noundef zeroext 1444) #10
  store ptr %70, ptr %1, align 8
  br label %95

.critedge:                                        ; preds = %36, %56, %45, %_validate_operator.exit44, %_validate_operator.exit.thread
  %71 = getelementptr inbounds nuw i8, ptr %0, i64 56
  %72 = load ptr, ptr %71, align 8
  %73 = load ptr, ptr %0, align 8
  %74 = getelementptr inbounds nuw i8, ptr %73, i64 8
  %75 = load i32, ptr %74, align 8
  %76 = tail call ptr @jobacct_storage_g_get_jobs_cond(ptr noundef %72, i32 noundef %75, ptr noundef nonnull %.8.val.0.val) #10
  store ptr %76, ptr %3, align 8
  %77 = tail call ptr @__errno_location() #12
  %78 = load i32, ptr %77, align 4
  %.not39 = icmp eq i32 %78, 0
  br i1 %.not39, label %79, label %88

79:                                               ; preds = %.critedge
  %.not40 = icmp eq ptr %76, null
  br i1 %.not40, label %80, label %82

80:                                               ; preds = %79
  %81 = tail call ptr @list_create(ptr noundef null) #10
  store ptr %81, ptr %3, align 8
  br label %82

82:                                               ; preds = %80, %79
  %83 = tail call ptr @init_buf(i32 noundef 1024) #10
  store ptr %83, ptr %1, align 8
  tail call void @pack16(i16 noundef zeroext 1421, ptr noundef %83) #10
  %84 = load ptr, ptr %0, align 8
  %85 = getelementptr inbounds nuw i8, ptr %84, i64 168
  %86 = load i16, ptr %85, align 8
  %87 = load ptr, ptr %1, align 8
  call void @slurmdbd_pack_list_msg(ptr noundef nonnull %3, i16 noundef zeroext %86, i32 noundef 1421, ptr noundef %87) #10
  %.pre4 = load ptr, ptr %3, align 8
  br label %92

88:                                               ; preds = %.critedge
  %89 = load ptr, ptr %0, align 8
  %90 = tail call ptr @slurm_strerror(i32 noundef %78) #10
  %91 = tail call ptr @slurm_persist_make_rc_msg(ptr noundef %89, i32 noundef %78, ptr noundef %90, i16 noundef zeroext 1444) #10
  store ptr %91, ptr %1, align 8
  br label %92

92:                                               ; preds = %82, %88
  %93 = phi ptr [ %76, %88 ], [ %.pre4, %82 ]
  %.031 = phi i32 [ -1, %88 ], [ 0, %82 ]
  %.not41 = icmp eq ptr %93, null
  br i1 %.not41, label %95, label %94

94:                                               ; preds = %92
  call void @list_destroy(ptr noundef nonnull %93) #10
  br label %95

95:                                               ; preds = %92, %94, %67, %31
  %.029 = phi i32 [ -1, %67 ], [ -1, %31 ], [ %.031, %94 ], [ %.031, %92 ]
  call void @llvm.lifetime.end.p0(i64 16, ptr nonnull %3) #10
  ret i32 %.029
}